(lp0
(lp1
S'>'
p2
aS'>'
p3
aS'>'
p4
aS'v'
p5
aS'>'
p6
aS'>'
p7
aS'<'
p8
aS'<'
p9
aS'v'
p10
aS'>'
p11
aS'<'
p12
aS'>'
p13
aS'v'
p14
aS'v'
p15
aS'>'
p16
aS'<'
p17
aS'<'
p18
aS'>'
p19
aS'^'
p20
aS'^'
p21
aa(lp22
S'>'
p23
aS'None'
p24
aS'None'
p25
aS'None'
p26
aS'None'
p27
aS'^'
p28
aS'None'
p29
aS'None'
p30
aS'None'
p31
aS'^'
p32
aS'^'
p33
aS'None'
p34
aS'None'
p35
aS'None'
p36
aS'v'
p37
aS'None'
p38
aS'None'
p39
aS'None'
p40
aS'None'
p41
aS'^'
p42
aa(lp43
S'v'
p44
aS'None'
p45
aS'v'
p46
aS'v'
p47
aS'None'
p48
aS'None'
p49
aS'None'
p50
aS'>'
p51
aS'<'
p52
aS'>'
p53
aS'>'
p54
aS'v'
p55
aS'>'
p56
aS'None'
p57
aS'None'
p58
aS'None'
p59
aS'^'
p60
aS'<'
p61
aS'None'
p62
aS'^'
p63
aa(lp64
S'v'
p65
aS'None'
p66
aS'<'
p67
aS'^'
p68
aS'^'
p69
aS'<'
p70
aS'^'
p71
aS'>'
p72
aS'^'
p73
aS'^'
p74
aS'^'
p75
aS'^'
p76
aS'>'
p77
aS'^'
p78
aS'<'
p79
aS'<'
p80
aS'^'
p81
aS'v'
p82
aS'None'
p83
aS'^'
p84
aa(lp85
S'v'
p86
aS'None'
p87
aS'None'
p88
aS'^'
p89
aS'>'
p90
aS'^'
p91
aS'^'
p92
aS'>'
p93
aS'^'
p94
aS'>'
p95
aS'v'
p96
aS'<'
p97
aS'>'
p98
aS'v'
p99
aS'<'
p100
aS'^'
p101
aS'^'
p102
aS'None'
p103
aS'None'
p104
aS'^'
p105
aa(lp106
S'v'
p107
aS'<'
p108
aS'None'
p109
aS'<'
p110
aS'<'
p111
aS'>'
p112
aS'^'
p113
aS'>'
p114
aS'^'
p115
aS'<'
p116
aS'>'
p117
aS'>'
p118
aS'<'
p119
aS'v'
p120
aS'v'
p121
aS'>'
p122
aS'>'
p123
aS'None'
p124
aS'v'
p125
aS'^'
p126
aa(lp127
S'^'
p128
aS'None'
p129
aS'None'
p130
aS'>'
p131
aS'None'
p132
aS'None'
p133
aS'None'
p134
aS'None'
p135
aS'None'
p136
aS'v'
p137
aS'>'
p138
aS'None'
p139
aS'None'
p140
aS'None'
p141
aS'None'
p142
aS'None'
p143
aS'^'
p144
aS'None'
p145
aS'None'
p146
aS'v'
p147
aa(lp148
S'v'
p149
aS'None'
p150
aS'v'
p151
aS'>'
p152
aS'None'
p153
aS'None'
p154
aS'None'
p155
aS'None'
p156
aS'None'
p157
aS'v'
p158
aS'v'
p159
aS'None'
p160
aS'None'
p161
aS'None'
p162
aS'None'
p163
aS'None'
p164
aS'>'
p165
aS'>'
p166
aS'None'
p167
aS'v'
p168
aa(lp169
S'v'
p170
aS'None'
p171
aS'v'
p172
aS'v'
p173
aS'None'
p174
aS'None'
p175
aS'None'
p176
aS'None'
p177
aS'None'
p178
aS'>'
p179
aS'^'
p180
aS'None'
p181
aS'None'
p182
aS'None'
p183
aS'None'
p184
aS'None'
p185
aS'<'
p186
aS'<'
p187
aS'None'
p188
aS'>'
p189
aa(lp190
S'<'
p191
aS'>'
p192
aS'>'
p193
aS'<'
p194
aS'>'
p195
aS'<'
p196
aS'^'
p197
aS'<'
p198
aS'v'
p199
aS'^'
p200
aS'>'
p201
aS'v'
p202
aS'>'
p203
aS'>'
p204
aS'<'
p205
aS'<'
p206
aS'^'
p207
aS'v'
p208
aS'>'
p209
aS'<'
p210
aa(lp211
S'^'
p212
aS'^'
p213
aS'^'
p214
aS'^'
p215
aS'>'
p216
aS'v'
p217
aS'v'
p218
aS'>'
p219
aS'^'
p220
aS'v'
p221
aS'>'
p222
aS'<'
p223
aS'v'
p224
aS'v'
p225
aS'<'
p226
aS'^'
p227
aS'>'
p228
aS'>'
p229
aS'<'
p230
aS'v'
p231
aa(lp232
S'>'
p233
aS'None'
p234
aS'<'
p235
aS'v'
p236
aS'None'
p237
aS'None'
p238
aS'None'
p239
aS'None'
p240
aS'None'
p241
aS'<'
p242
aS'v'
p243
aS'None'
p244
aS'None'
p245
aS'None'
p246
aS'None'
p247
aS'None'
p248
aS'>'
p249
aS'v'
p250
aS'None'
p251
aS'None'
p252
aa(lp253
S'>'
p254
aS'None'
p255
aS'<'
p256
aS'>'
p257
aS'None'
p258
aS'None'
p259
aS'None'
p260
aS'None'
p261
aS'None'
p262
aS'>'
p263
aS'>'
p264
aS'None'
p265
aS'None'
p266
aS'None'
p267
aS'None'
p268
aS'None'
p269
aS'>'
p270
aS'^'
p271
aS'None'
p272
aS'v'
p273
aa(lp274
S'>'
p275
aS'None'
p276
aS'None'
p277
aS'v'
p278
aS'None'
p279
aS'None'
p280
aS'None'
p281
aS'None'
p282
aS'None'
p283
aS'^'
p284
aS'^'
p285
aS'None'
p286
aS'None'
p287
aS'None'
p288
aS'None'
p289
aS'None'
p290
aS'>'
p291
aS'None'
p292
aS'None'
p293
aS'<'
p294
aa(lp295
S'^'
p296
aS'<'
p297
aS'None'
p298
aS'>'
p299
aS'<'
p300
aS'^'
p301
aS'v'
p302
aS'<'
p303
aS'<'
p304
aS'<'
p305
aS'>'
p306
aS'^'
p307
aS'^'
p308
aS'>'
p309
aS'v'
p310
aS'>'
p311
aS'^'
p312
aS'None'
p313
aS'<'
p314
aS'<'
p315
aa(lp316
S'^'
p317
aS'None'
p318
aS'None'
p319
aS'v'
p320
aS'v'
p321
aS'v'
p322
aS'>'
p323
aS'v'
p324
aS'<'
p325
aS'<'
p326
aS'^'
p327
aS'<'
p328
aS'v'
p329
aS'v'
p330
aS'>'
p331
aS'^'
p332
aS'v'
p333
aS'None'
p334
aS'None'
p335
aS'^'
p336
aa(lp337
S'^'
p338
aS'None'
p339
aS'^'
p340
aS'>'
p341
aS'v'
p342
aS'v'
p343
aS'>'
p344
aS'<'
p345
aS'>'
p346
aS'v'
p347
aS'<'
p348
aS'^'
p349
aS'>'
p350
aS'>'
p351
aS'>'
p352
aS'<'
p353
aS'^'
p354
aS'>'
p355
aS'None'
p356
aS'<'
p357
aa(lp358
S'>'
p359
aS'None'
p360
aS'^'
p361
aS'<'
p362
aS'None'
p363
aS'None'
p364
aS'None'
p365
aS'v'
p366
aS'<'
p367
aS'<'
p368
aS'>'
p369
aS'<'
p370
aS'v'
p371
aS'None'
p372
aS'None'
p373
aS'None'
p374
aS'>'
p375
aS'>'
p376
aS'None'
p377
aS'<'
p378
aa(lp379
S'^'
p380
aS'None'
p381
aS'None'
p382
aS'None'
p383
aS'None'
p384
aS'<'
p385
aS'None'
p386
aS'None'
p387
aS'None'
p388
aS'v'
p389
aS'^'
p390
aS'None'
p391
aS'None'
p392
aS'None'
p393
aS'<'
p394
aS'None'
p395
aS'None'
p396
aS'None'
p397
aS'None'
p398
aS'v'
p399
aa(lp400
S'<'
p401
aS'v'
p402
aS'^'
p403
aS'v'
p404
aS'v'
p405
aS'>'
p406
aS'v'
p407
aS'>'
p408
aS'^'
p409
aS'>'
p410
aS'^'
p411
aS'<'
p412
aS'>'
p413
aS'^'
p414
aS'>'
p415
aS'>'
p416
aS'^'
p417
aS'<'
p418
aS'<'
p419
aS'<'
p420
aa.