(lp0
(lp1
S'<'
p2
aS'<'
p3
aS'v'
p4
aS'v'
p5
aS'v'
p6
aS'<'
p7
aS'v'
p8
aS'<'
p9
aS'>'
p10
aS'>'
p11
aS'<'
p12
aS'^'
p13
aS'v'
p14
aS'<'
p15
aS'>'
p16
aS'^'
p17
aS'v'
p18
aS'<'
p19
aS'<'
p20
aS'<'
p21
aa(lp22
S'^'
p23
aS'None'
p24
aS'None'
p25
aS'None'
p26
aS'None'
p27
aS'^'
p28
aS'None'
p29
aS'None'
p30
aS'None'
p31
aS'v'
p32
aS'^'
p33
aS'None'
p34
aS'None'
p35
aS'None'
p36
aS'>'
p37
aS'None'
p38
aS'None'
p39
aS'None'
p40
aS'None'
p41
aS'v'
p42
aa(lp43
S'v'
p44
aS'None'
p45
aS'>'
p46
aS'>'
p47
aS'None'
p48
aS'None'
p49
aS'None'
p50
aS'<'
p51
aS'>'
p52
aS'^'
p53
aS'v'
p54
aS'<'
p55
aS'^'
p56
aS'None'
p57
aS'None'
p58
aS'None'
p59
aS'^'
p60
aS'<'
p61
aS'None'
p62
aS'v'
p63
aa(lp64
S'<'
p65
aS'None'
p66
aS'v'
p67
aS'<'
p68
aS'>'
p69
aS'v'
p70
aS'^'
p71
aS'>'
p72
aS'<'
p73
aS'>'
p74
aS'<'
p75
aS'^'
p76
aS'>'
p77
aS'^'
p78
aS'v'
p79
aS'v'
p80
aS'^'
p81
aS'v'
p82
aS'None'
p83
aS'v'
p84
aa(lp85
S'v'
p86
aS'None'
p87
aS'None'
p88
aS'>'
p89
aS'<'
p90
aS'^'
p91
aS'<'
p92
aS'>'
p93
aS'>'
p94
aS'v'
p95
aS'<'
p96
aS'>'
p97
aS'v'
p98
aS'v'
p99
aS'>'
p100
aS'<'
p101
aS'>'
p102
aS'None'
p103
aS'None'
p104
aS'^'
p105
aa(lp106
S'<'
p107
aS'<'
p108
aS'None'
p109
aS'>'
p110
aS'^'
p111
aS'^'
p112
aS'>'
p113
aS'>'
p114
aS'v'
p115
aS'v'
p116
aS'>'
p117
aS'^'
p118
aS'^'
p119
aS'^'
p120
aS'<'
p121
aS'v'
p122
aS'>'
p123
aS'None'
p124
aS'^'
p125
aS'>'
p126
aa(lp127
S'>'
p128
aS'None'
p129
aS'None'
p130
aS'>'
p131
aS'None'
p132
aS'None'
p133
aS'None'
p134
aS'None'
p135
aS'None'
p136
aS'<'
p137
aS'>'
p138
aS'None'
p139
aS'None'
p140
aS'None'
p141
aS'None'
p142
aS'None'
p143
aS'>'
p144
aS'None'
p145
aS'None'
p146
aS'<'
p147
aa(lp148
S'v'
p149
aS'None'
p150
aS'^'
p151
aS'>'
p152
aS'None'
p153
aS'None'
p154
aS'None'
p155
aS'None'
p156
aS'None'
p157
aS'>'
p158
aS'>'
p159
aS'None'
p160
aS'None'
p161
aS'None'
p162
aS'None'
p163
aS'None'
p164
aS'>'
p165
aS'>'
p166
aS'None'
p167
aS'v'
p168
aa(lp169
S'^'
p170
aS'None'
p171
aS'^'
p172
aS'<'
p173
aS'None'
p174
aS'None'
p175
aS'None'
p176
aS'None'
p177
aS'None'
p178
aS'>'
p179
aS'>'
p180
aS'None'
p181
aS'None'
p182
aS'None'
p183
aS'None'
p184
aS'None'
p185
aS'<'
p186
aS'v'
p187
aS'None'
p188
aS'>'
p189
aa(lp190
S'>'
p191
aS'^'
p192
aS'<'
p193
aS'<'
p194
aS'<'
p195
aS'v'
p196
aS'>'
p197
aS'>'
p198
aS'^'
p199
aS'v'
p200
aS'>'
p201
aS'^'
p202
aS'^'
p203
aS'<'
p204
aS'^'
p205
aS'<'
p206
aS'v'
p207
aS'v'
p208
aS'<'
p209
aS'^'
p210
aa(lp211
S'<'
p212
aS'v'
p213
aS'<'
p214
aS'v'
p215
aS'>'
p216
aS'^'
p217
aS'>'
p218
aS'v'
p219
aS'^'
p220
aS'<'
p221
aS'^'
p222
aS'>'
p223
aS'^'
p224
aS'>'
p225
aS'v'
p226
aS'^'
p227
aS'<'
p228
aS'>'
p229
aS'v'
p230
aS'<'
p231
aa(lp232
S'<'
p233
aS'None'
p234
aS'^'
p235
aS'<'
p236
aS'None'
p237
aS'None'
p238
aS'None'
p239
aS'None'
p240
aS'None'
p241
aS'^'
p242
aS'>'
p243
aS'None'
p244
aS'None'
p245
aS'None'
p246
aS'None'
p247
aS'None'
p248
aS'<'
p249
aS'<'
p250
aS'None'
p251
aS'None'
p252
aa(lp253
S'>'
p254
aS'None'
p255
aS'v'
p256
aS'<'
p257
aS'None'
p258
aS'None'
p259
aS'None'
p260
aS'None'
p261
aS'None'
p262
aS'>'
p263
aS'v'
p264
aS'None'
p265
aS'None'
p266
aS'None'
p267
aS'None'
p268
aS'None'
p269
aS'v'
p270
aS'^'
p271
aS'None'
p272
aS'>'
p273
aa(lp274
S'<'
p275
aS'None'
p276
aS'None'
p277
aS'v'
p278
aS'None'
p279
aS'None'
p280
aS'None'
p281
aS'None'
p282
aS'None'
p283
aS'<'
p284
aS'>'
p285
aS'None'
p286
aS'None'
p287
aS'None'
p288
aS'None'
p289
aS'None'
p290
aS'<'
p291
aS'None'
p292
aS'None'
p293
aS'<'
p294
aa(lp295
S'<'
p296
aS'^'
p297
aS'None'
p298
aS'<'
p299
aS'>'
p300
aS'^'
p301
aS'^'
p302
aS'v'
p303
aS'v'
p304
aS'^'
p305
aS'<'
p306
aS'^'
p307
aS'<'
p308
aS'^'
p309
aS'v'
p310
aS'>'
p311
aS'v'
p312
aS'None'
p313
aS'^'
p314
aS'>'
p315
aa(lp316
S'>'
p317
aS'None'
p318
aS'None'
p319
aS'<'
p320
aS'v'
p321
aS'>'
p322
aS'v'
p323
aS'>'
p324
aS'^'
p325
aS'v'
p326
aS'v'
p327
aS'^'
p328
aS'<'
p329
aS'v'
p330
aS'^'
p331
aS'>'
p332
aS'<'
p333
aS'None'
p334
aS'None'
p335
aS'>'
p336
aa(lp337
S'<'
p338
aS'None'
p339
aS'<'
p340
aS'^'
p341
aS'<'
p342
aS'<'
p343
aS'v'
p344
aS'v'
p345
aS'v'
p346
aS'>'
p347
aS'v'
p348
aS'<'
p349
aS'v'
p350
aS'>'
p351
aS'^'
p352
aS'v'
p353
aS'v'
p354
aS'<'
p355
aS'None'
p356
aS'>'
p357
aa(lp358
S'<'
p359
aS'None'
p360
aS'^'
p361
aS'^'
p362
aS'None'
p363
aS'None'
p364
aS'None'
p365
aS'v'
p366
aS'>'
p367
aS'v'
p368
aS'<'
p369
aS'>'
p370
aS'>'
p371
aS'None'
p372
aS'None'
p373
aS'None'
p374
aS'v'
p375
aS'<'
p376
aS'None'
p377
aS'<'
p378
aa(lp379
S'v'
p380
aS'None'
p381
aS'None'
p382
aS'None'
p383
aS'None'
p384
aS'<'
p385
aS'None'
p386
aS'None'
p387
aS'None'
p388
aS'v'
p389
aS'<'
p390
aS'None'
p391
aS'None'
p392
aS'None'
p393
aS'v'
p394
aS'None'
p395
aS'None'
p396
aS'None'
p397
aS'None'
p398
aS'^'
p399
aa(lp400
S'v'
p401
aS'v'
p402
aS'>'
p403
aS'v'
p404
aS'^'
p405
aS'<'
p406
aS'<'
p407
aS'v'
p408
aS'v'
p409
aS'v'
p410
aS'v'
p411
aS'^'
p412
aS'>'
p413
aS'v'
p414
aS'^'
p415
aS'^'
p416
aS'v'
p417
aS'^'
p418
aS'<'
p419
aS'<'
p420
aa.