(lp0
(lp1
S'>'
p2
aS'>'
p3
aS'>'
p4
aS'>'
p5
aS'>'
p6
aS'>'
p7
aS'>'
p8
aS'>'
p9
aS'>'
p10
aS'v'
p11
aa(lp12
S'^'
p13
aS'None'
p14
aS'None'
p15
aS'None'
p16
aS'None'
p17
aS'None'
p18
aS'None'
p19
aS'None'
p20
aS'None'
p21
aS'^'
p22
aa(lp23
S'^'
p24
aS'None'
p25
aS'None'
p26
aS'None'
p27
aS'None'
p28
aS'None'
p29
aS'None'
p30
aS'None'
p31
aS'None'
p32
aS'^'
p33
aa(lp34
S'^'
p35
aS'None'
p36
aS'None'
p37
aS'None'
p38
aS'None'
p39
aS'None'
p40
aS'None'
p41
aS'None'
p42
aS'None'
p43
aS'^'
p44
aa(lp45
S'^'
p46
aS'<'
p47
aS'<'
p48
aS'<'
p49
aS'>'
p50
aS'^'
p51
aS'<'
p52
aS'>'
p53
aS'>'
p54
aS'^'
p55
aa(lp56
S'^'
p57
aS'^'
p58
aS'^'
p59
aS'v'
p60
aS'^'
p61
aS'<'
p62
aS'<'
p63
aS'v'
p64
aS'>'
p65
aS'^'
p66
aa(lp67
S'^'
p68
aS'^'
p69
aS'v'
p70
aS'>'
p71
aS'<'
p72
aS'>'
p73
aS'>'
p74
aS'>'
p75
aS'>'
p76
aS'^'
p77
aa(lp78
S'v'
p79
aS'<'
p80
aS'^'
p81
aS'v'
p82
aS'^'
p83
aS'>'
p84
aS'>'
p85
aS'v'
p86
aS'>'
p87
aS'^'
p88
aa(lp89
S'v'
p90
aS'None'
p91
aS'None'
p92
aS'None'
p93
aS'None'
p94
aS'None'
p95
aS'None'
p96
aS'None'
p97
aS'None'
p98
aS'^'
p99
aa(lp100
S'>'
p101
aS'>'
p102
aS'>'
p103
aS'>'
p104
aS'>'
p105
aS'>'
p106
aS'>'
p107
aS'>'
p108
aS'>'
p109
aS'^'
p110
aa.